target datalayout = "e-m:e-p270:32:32-p271:32:32-p272:64:64-i64:64-i128:128-f80:128-n8:16:32:64-S128"
target triple = "x86_64-unknown-linux-gnu"

%"class.proxygen::huffman::HuffTree" = type { i32, ptr, ptr, [46 x %"struct.proxygen::huffman::SuperHuffNode"] }
%"struct.proxygen::huffman::SuperHuffNode" = type { [256 x %"struct.proxygen::huffman::HuffNode"] }
%"struct.proxygen::huffman::HuffNode" = type { %union.anon, %struct.anon }
%union.anon = type { i8 }
%struct.anon = type { i8 }
%"class.folly::Range" = type { ptr, ptr }

; Function Attrs: mustprogress nounwind uwtable
define linkonce_odr noundef nonnull align 1 dereferenceable(1) ptr @_ZN5folly5RangeIPKcEixEm(ptr noundef nonnull align 8 dereferenceable(16) %this, i64 noundef %i) #1 comdat align 2 {
entry:
  %this.addr = alloca ptr, align 8
  %i.addr = alloca i64, align 8
  store ptr %this, ptr %this.addr, align 8
  store i64 %i, ptr %i.addr, align 8
  %this1 = load ptr, ptr %this.addr, align 8
  %b_ = getelementptr inbounds %"class.folly::Range", ptr %this1, i32 0, i32 0
  %0 = load ptr, ptr %b_, align 8
  %1 = load i64, ptr %i.addr, align 8
  %arrayidx = getelementptr inbounds i8, ptr %0, i64 %1
  ret ptr %arrayidx
}

; Function Attrs: mustprogress nounwind uwtable
define linkonce_odr noundef i64 @_ZNK5folly5RangeIPKcE4sizeEv(ptr noundef nonnull align 8 dereferenceable(16) %this) #1 comdat align 2 {
entry:
  %this.addr = alloca ptr, align 8
  store ptr %this, ptr %this.addr, align 8
  %this1 = load ptr, ptr %this.addr, align 8
  %e_ = getelementptr inbounds %"class.folly::Range", ptr %this1, i32 0, i32 1
  %0 = load ptr, ptr %e_, align 8
  %b_ = getelementptr inbounds %"class.folly::Range", ptr %this1, i32 0, i32 0
  %1 = load ptr, ptr %b_, align 8
  %sub.ptr.lhs.cast = ptrtoint ptr %0 to i64
  %sub.ptr.rhs.cast = ptrtoint ptr %1 to i64
  %sub.ptr.sub = sub i64 %sub.ptr.lhs.cast, %sub.ptr.rhs.cast
  ret i64 %sub.ptr.sub
}

; Function Attrs: mustprogress uwtable
define noundef i32 @_ZNK8proxygen7huffman8HuffTree13getEncodeSizeEN5folly5RangeIPKcEE(ptr noundef nonnull align 8 dereferenceable(23576) %this, ptr %literal.coerce0, ptr %literal.coerce1) #0 align 2 {
entry:
  %literal = alloca %"class.folly::Range", align 8
  %this.addr = alloca ptr, align 8
  %totalBits = alloca i32, align 4
  %i = alloca i64, align 8
  %ch = alloca i8, align 1
  %size = alloca i32, align 4
  %0 = getelementptr inbounds { ptr, ptr }, ptr %literal, i32 0, i32 0
  store ptr %literal.coerce0, ptr %0, align 8
  %1 = getelementptr inbounds { ptr, ptr }, ptr %literal, i32 0, i32 1
  store ptr %literal.coerce1, ptr %1, align 8
  store ptr %this, ptr %this.addr, align 8
  %this1 = load ptr, ptr %this.addr, align 8
  store i32 0, ptr %totalBits, align 4
  store i64 0, ptr %i, align 8
  br label %for.cond

for.cond:                                         ; preds = %for.inc, %entry
  %2 = load i64, ptr %i, align 8
  %call = call noundef i64 @_ZNK5folly5RangeIPKcE4sizeEv(ptr noundef nonnull align 8 dereferenceable(16) %literal)
  %cmp = icmp ult i64 %2, %call
  br i1 %cmp, label %for.body, label %for.end

for.body:                                         ; preds = %for.cond
  %3 = load i64, ptr %i, align 8
  %call2 = call noundef nonnull align 1 dereferenceable(1) ptr @_ZN5folly5RangeIPKcEixEm(ptr noundef nonnull align 8 dereferenceable(16) %literal, i64 noundef %3)
  %4 = load i8, ptr %call2, align 1
  store i8 %4, ptr %ch, align 1
  %bits_ = getelementptr inbounds %"class.proxygen::huffman::HuffTree", ptr %this1, i32 0, i32 2
  %5 = load ptr, ptr %bits_, align 8
  %6 = load i8, ptr %ch, align 1
  %idxprom = zext i8 %6 to i64
  %arrayidx = getelementptr inbounds i8, ptr %5, i64 %idxprom
  %7 = load i8, ptr %arrayidx, align 1
  %conv = zext i8 %7 to i32
  %8 = load i32, ptr %totalBits, align 4
  %add = add i32 %8, %conv
  store i32 %add, ptr %totalBits, align 4
  br label %for.inc

for.inc:                                          ; preds = %for.body
  %9 = load i64, ptr %i, align 8
  %inc = add i64 %9, 1
  store i64 %inc, ptr %i, align 8
  br label %for.cond, !llvm.loop !10

for.end:                                          ; preds = %for.cond
  %10 = load i32, ptr %totalBits, align 4
  %shr = lshr i32 %10, 3
  store i32 %shr, ptr %size, align 4
  %11 = load i32, ptr %totalBits, align 4
  %and = and i32 %11, 7
  %tobool = icmp ne i32 %and, 0
  br i1 %tobool, label %if.then, label %if.end

if.then:                                          ; preds = %for.end
  %12 = load i32, ptr %size, align 4
  %inc3 = add i32 %12, 1
  store i32 %inc3, ptr %size, align 4
  br label %if.end

if.end:                                           ; preds = %if.then, %for.end
  %13 = load i32, ptr %size, align 4
  ret i32 %13
}