; Function Attrs: mustprogress nofree norecurse nosync nounwind willreturn memory(read, inaccessiblemem: none) uwtable
define noundef i32 @_ZNK8proxygen7huffman8HuffTree13getEncodeSizeEN5folly5RangeIPKcEE(ptr nocapture noundef nonnull readonly align 8 dereferenceable(23576) %this, ptr %literal.coerce0, ptr %literal.coerce1) local_unnamed_addr #5 align 2 {
entry:
  %cmp7.not = icmp eq ptr %literal.coerce1, %literal.coerce0
  br i1 %cmp7.not, label %for.end, label %for.body.lr.ph

for.body.lr.ph:                                   ; preds = %entry
  %sub.ptr.lhs.cast.i = ptrtoint ptr %literal.coerce1 to i64
  %sub.ptr.rhs.cast.i = ptrtoint ptr %literal.coerce0 to i64
  %sub.ptr.sub.i = sub i64 %sub.ptr.lhs.cast.i, %sub.ptr.rhs.cast.i
  %bits_ = getelementptr inbounds i8, ptr %this, i64 16
  %0 = load ptr, ptr %bits_, align 8
  %umax = tail call i64 @llvm.umax.i64(i64 %sub.ptr.sub.i, i64 1)
  br label %for.body

for.body:                                         ; preds = %for.body.lr.ph, %for.body
  %totalBits.09 = phi i32 [ 0, %for.body.lr.ph ], [ %add, %for.body ]
  %i.08 = phi i64 [ 0, %for.body.lr.ph ], [ %inc, %for.body ]
  %arrayidx.i = getelementptr inbounds i8, ptr %literal.coerce0, i64 %i.08
  %1 = load i8, ptr %arrayidx.i, align 1
  %idxprom = zext i8 %1 to i64
  %arrayidx = getelementptr inbounds i8, ptr %0, i64 %idxprom
  %2 = load i8, ptr %arrayidx, align 1
  %conv = zext i8 %2 to i32
  %add = add i32 %totalBits.09, %conv
  %inc = add nuw i64 %i.08, 1
  %exitcond.not = icmp eq i64 %inc, %umax
  br i1 %exitcond.not, label %for.end, label %for.body, !llvm.loop !11

for.end:                                          ; preds = %for.body, %entry
  %totalBits.0.lcssa = phi i32 [ 0, %entry ], [ %add, %for.body ]
  %shr = lshr i32 %totalBits.0.lcssa, 3
  %and = and i32 %totalBits.0.lcssa, 7
  %tobool.not = icmp ne i32 %and, 0
  %inc3 = zext i1 %tobool.not to i32
  %spec.select = add nuw nsw i32 %shr, %inc3
  ret i32 %spec.select
}